target datalayout = "e-m:e-p270:32:32-p271:32:32-p272:64:64-i64:64-i128:128-f80:128-n8:16:32:64-S128"
target triple = "x86_64-unknown-linux-gnu"

%"class.QuantLib::Period" = type { i32, i32 }

; Function Attrs: mustprogress nounwind uwtable
define linkonce_odr void @_ZN8QuantLib6PeriodC2EiNS_8TimeUnitE(ptr noundef nonnull align 4 dereferenceable(8) %this, i32 noundef %n, i32 noundef %units) unnamed_addr #3 comdat align 2 {
entry:
  %this.addr = alloca ptr, align 8
  %n.addr = alloca i32, align 4
  %units.addr = alloca i32, align 4
  store ptr %this, ptr %this.addr, align 8, !tbaa !3
  store i32 %n, ptr %n.addr, align 4, !tbaa !18
  store i32 %units, ptr %units.addr, align 4, !tbaa !19
  %this1 = load ptr, ptr %this.addr, align 8
  %length_ = getelementptr inbounds nuw %"class.QuantLib::Period", ptr %this1, i32 0, i32 0
  %0 = load i32, ptr %n.addr, align 4, !tbaa !18
  store i32 %0, ptr %length_, align 4, !tbaa !9
  %units_ = getelementptr inbounds nuw %"class.QuantLib::Period", ptr %this1, i32 0, i32 1
  %1 = load i32, ptr %units.addr, align 4, !tbaa !19
  store i32 %1, ptr %units_, align 4, !tbaa !13
  ret void
}

; Function Attrs: mustprogress nounwind uwtable
define linkonce_odr noundef i32 @_ZNK8QuantLib6Period5unitsEv(ptr noundef nonnull align 4 dereferenceable(8) %this) #3 comdat align 2 {
entry:
  %this.addr = alloca ptr, align 8
  store ptr %this, ptr %this.addr, align 8, !tbaa !3
  %this1 = load ptr, ptr %this.addr, align 8
  %units_ = getelementptr inbounds nuw %"class.QuantLib::Period", ptr %this1, i32 0, i32 1
  %0 = load i32, ptr %units_, align 4, !tbaa !13
  ret i32 %0
}

; Function Attrs: mustprogress nounwind uwtable
define linkonce_odr noundef i32 @_ZNK8QuantLib6Period6lengthEv(ptr noundef nonnull align 4 dereferenceable(8) %this) #3 comdat align 2 {
entry:
  %this.addr = alloca ptr, align 8
  store ptr %this, ptr %this.addr, align 8, !tbaa !3
  %this1 = load ptr, ptr %this.addr, align 8
  %length_ = getelementptr inbounds nuw %"class.QuantLib::Period", ptr %this1, i32 0, i32 0
  %0 = load i32, ptr %length_, align 4, !tbaa !9
  ret i32 %0
}

; Function Attrs: mustprogress uwtable
define i64 @_ZN8QuantLibplERKNS_6PeriodES2_(ptr noundef nonnull align 4 dereferenceable(8) %p1, ptr noundef nonnull align 4 dereferenceable(8) %p2) #0 {
entry:
  %retval = alloca %"class.QuantLib::Period", align 4
  %p1.addr = alloca ptr, align 8
  %p2.addr = alloca ptr, align 8
  store ptr %p1, ptr %p1.addr, align 8, !tbaa !3
  store ptr %p2, ptr %p2.addr, align 8, !tbaa !3
  %0 = load ptr, ptr %p1.addr, align 8, !tbaa !3
  call void @llvm.memcpy.p0.p0.i64(ptr align 4 %retval, ptr align 4 %0, i64 8, i1 false), !tbaa.struct !23
  %1 = load ptr, ptr %p2.addr, align 8, !tbaa !3
  %call = call noundef nonnull align 4 dereferenceable(8) ptr @_ZN8QuantLib6PeriodpLERKS0_(ptr noundef nonnull align 4 dereferenceable(8) %retval, ptr noundef nonnull align 4 dereferenceable(8) %1)
  %2 = load i64, ptr %retval, align 4
  ret i64 %2
}

; Function Attrs: inlinehint mustprogress uwtable
define linkonce_odr i64 @_ZN8QuantLibngERKNS_6PeriodE(ptr noundef nonnull align 4 dereferenceable(8) %p) #2 comdat {
entry:
  %retval = alloca %"class.QuantLib::Period", align 4
  %p.addr = alloca ptr, align 8
  store ptr %p, ptr %p.addr, align 8, !tbaa !3
  %0 = load ptr, ptr %p.addr, align 8, !tbaa !3
  %call = call noundef i32 @_ZNK8QuantLib6Period6lengthEv(ptr noundef nonnull align 4 dereferenceable(8) %0)
  %sub = sub nsw i32 0, %call
  %1 = load ptr, ptr %p.addr, align 8, !tbaa !3
  %call1 = call noundef i32 @_ZNK8QuantLib6Period5unitsEv(ptr noundef nonnull align 4 dereferenceable(8) %1)
  call void @_ZN8QuantLib6PeriodC2EiNS_8TimeUnitE(ptr noundef nonnull align 4 dereferenceable(8) %retval, i32 noundef %sub, i32 noundef %call1)
  %2 = load i64, ptr %retval, align 4
  ret i64 %2
}

; Function Attrs: mustprogress uwtable
define i64 @_ZN8QuantLibmiERKNS_6PeriodES2_(ptr noundef nonnull align 4 dereferenceable(8) %p1, ptr noundef nonnull align 4 dereferenceable(8) %p2) #0 {
entry:
  %retval = alloca %"class.QuantLib::Period", align 4
  %p1.addr = alloca ptr, align 8
  %p2.addr = alloca ptr, align 8
  %ref.tmp = alloca %"class.QuantLib::Period", align 4
  store ptr %p1, ptr %p1.addr, align 8, !tbaa !3
  store ptr %p2, ptr %p2.addr, align 8, !tbaa !3
  %0 = load ptr, ptr %p1.addr, align 8, !tbaa !3
  call void @llvm.lifetime.start.p0(i64 8, ptr %ref.tmp) #13
  %1 = load ptr, ptr %p2.addr, align 8, !tbaa !3
  %call = call i64 @_ZN8QuantLibngERKNS_6PeriodE(ptr noundef nonnull align 4 dereferenceable(8) %1)
  store i64 %call, ptr %ref.tmp, align 4
  %call1 = call i64 @_ZN8QuantLibplERKNS_6PeriodES2_(ptr noundef nonnull align 4 dereferenceable(8) %0, ptr noundef nonnull align 4 dereferenceable(8) %ref.tmp)
  store i64 %call1, ptr %retval, align 4
  call void @llvm.lifetime.end.p0(i64 8, ptr %ref.tmp) #13
  %2 = load i64, ptr %retval, align 4
  ret i64 %2
}