; Function Attrs: mustprogress uwtable
define i64 @_ZN8QuantLibmiERKNS_6PeriodES2_(ptr nocapture noundef nonnull readonly align 4 dereferenceable(8) %p1, ptr nocapture noundef nonnull readonly align 4 dereferenceable(8) %p2) local_unnamed_addr #0 {
entry:
  %retval.i = alloca %"class.QuantLib::Period", align 8
  %ref.tmp = alloca %"class.QuantLib::Period", align 8
  call void @llvm.lifetime.start.p0(i64 8, ptr nonnull %ref.tmp) #17
  %0 = load i32, ptr %p2, align 4, !tbaa !3
  %sub.i = sub nsw i32 0, %0
  %units_.i.i = getelementptr inbounds nuw i8, ptr %p2, i64 4
  %1 = load i32, ptr %units_.i.i, align 4, !tbaa !9
  %retval.sroa.2.0.insert.ext.i = zext i32 %1 to i64
  %retval.sroa.2.0.insert.shift.i = shl nuw i64 %retval.sroa.2.0.insert.ext.i, 32
  %retval.sroa.0.0.insert.ext.i = zext i32 %sub.i to i64
  %retval.sroa.0.0.insert.insert.i = or disjoint i64 %retval.sroa.2.0.insert.shift.i, %retval.sroa.0.0.insert.ext.i
  store i64 %retval.sroa.0.0.insert.insert.i, ptr %ref.tmp, align 8
  call void @llvm.lifetime.start.p0(i64 8, ptr nonnull %retval.i)
  %2 = load i64, ptr %p1, align 4
  store i64 %2, ptr %retval.i, align 8
  %call.i = call noundef nonnull align 4 dereferenceable(8) ptr @_ZN8QuantLib6PeriodpLERKS0_(ptr noundef nonnull align 4 dereferenceable(8) %retval.i, ptr noundef nonnull readonly align 4 dereferenceable(8) %ref.tmp)
  %3 = load i64, ptr %retval.i, align 8
  call void @llvm.lifetime.end.p0(i64 8, ptr nonnull %retval.i)
  call void @llvm.lifetime.end.p0(i64 8, ptr nonnull %ref.tmp) #17
  ret i64 %3
}